target datalayout = "e-m:e-p270:32:32-p271:32:32-p272:64:64-i64:64-i128:128-f80:128-n8:16:32:64-S128"
target triple = "x86_64-pc-linux-gnu"

%"class.llvm::pdb::DbiStreamBuilder" = type { ptr, ptr, %"class.std::optional", i32, i16, i16, i16, i16, i32, i32, i32, i32, ptr, %"class.std::vector", %"class.std::optional.0", %"class.std::vector.15", %"class.llvm::StringMap", %"class.llvm::pdb::PDBStringTableBuilder", %"class.llvm::WritableBinaryStreamRef", %"class.llvm::MutableBinaryByteStream", %"class.std::vector.28", %"class.std::vector.33", %"struct.std::array" }
%"class.std::optional" = type { %"struct.std::_Optional_base" }
%"struct.std::_Optional_base" = type { %"struct.std::_Optional_payload" }
%"struct.std::_Optional_payload" = type { %"struct.std::_Optional_payload_base.base", [3 x i8] }
%"struct.std::_Optional_payload_base.base" = type <{ %"union.std::_Optional_payload_base<llvm::pdb::PdbRaw_DbiVer>::_Storage", i8 }>
%"union.std::_Optional_payload_base<llvm::pdb::PdbRaw_DbiVer>::_Storage" = type { i32 }
%"class.std::vector" = type { %"struct.std::_Vector_base" }
%"struct.std::_Vector_base" = type { %"struct.std::_Vector_base<std::unique_ptr<llvm::pdb::DbiModuleDescriptorBuilder>, std::allocator<std::unique_ptr<llvm::pdb::DbiModuleDescriptorBuilder>>>::_Vector_impl" }
%"struct.std::_Vector_base<std::unique_ptr<llvm::pdb::DbiModuleDescriptorBuilder>, std::allocator<std::unique_ptr<llvm::pdb::DbiModuleDescriptorBuilder>>>::_Vector_impl" = type { %"struct.std::_Vector_base<std::unique_ptr<llvm::pdb::DbiModuleDescriptorBuilder>, std::allocator<std::unique_ptr<llvm::pdb::DbiModuleDescriptorBuilder>>>::_Vector_impl_data" }
%"struct.std::_Vector_base<std::unique_ptr<llvm::pdb::DbiModuleDescriptorBuilder>, std::allocator<std::unique_ptr<llvm::pdb::DbiModuleDescriptorBuilder>>>::_Vector_impl_data" = type { ptr, ptr, ptr }
%"class.std::optional.0" = type { %"struct.std::_Optional_base.1" }
%"struct.std::_Optional_base.1" = type { %"struct.std::_Optional_payload.3" }
%"struct.std::_Optional_payload.3" = type { %"struct.std::_Optional_payload.base.12", [7 x i8] }
%"struct.std::_Optional_payload.base.12" = type { %"struct.std::_Optional_payload_base.base.11" }
%"struct.std::_Optional_payload_base.base.11" = type <{ %"union.std::_Optional_payload_base<llvm::codeview::DebugFrameDataSubsection>::_Storage", i8 }>
%"union.std::_Optional_payload_base<llvm::codeview::DebugFrameDataSubsection>::_Storage" = type { %"class.llvm::codeview::DebugFrameDataSubsection" }
%"class.llvm::codeview::DebugFrameDataSubsection" = type { %"class.llvm::codeview::DebugSubsection.base", i8, %"class.std::vector.6" }
%"class.llvm::codeview::DebugSubsection.base" = type <{ ptr, i32 }>
%"class.std::vector.6" = type { %"struct.std::_Vector_base.7" }
%"struct.std::_Vector_base.7" = type { %"struct.std::_Vector_base<llvm::codeview::FrameData, std::allocator<llvm::codeview::FrameData>>::_Vector_impl" }
%"struct.std::_Vector_base<llvm::codeview::FrameData, std::allocator<llvm::codeview::FrameData>>::_Vector_impl" = type { %"struct.std::_Vector_base<llvm::codeview::FrameData, std::allocator<llvm::codeview::FrameData>>::_Vector_impl_data" }
%"struct.std::_Vector_base<llvm::codeview::FrameData, std::allocator<llvm::codeview::FrameData>>::_Vector_impl_data" = type { ptr, ptr, ptr }
%"class.std::vector.15" = type { %"struct.std::_Vector_base.16" }
%"struct.std::_Vector_base.16" = type { %"struct.std::_Vector_base<llvm::object::FpoData, std::allocator<llvm::object::FpoData>>::_Vector_impl" }
%"struct.std::_Vector_base<llvm::object::FpoData, std::allocator<llvm::object::FpoData>>::_Vector_impl" = type { %"struct.std::_Vector_base<llvm::object::FpoData, std::allocator<llvm::object::FpoData>>::_Vector_impl_data" }
%"struct.std::_Vector_base<llvm::object::FpoData, std::allocator<llvm::object::FpoData>>::_Vector_impl_data" = type { ptr, ptr, ptr }
%"class.llvm::StringMap" = type { %"class.llvm::StringMapImpl" }
%"class.llvm::StringMapImpl" = type { ptr, i32, i32, i32, i32 }
%"class.llvm::pdb::PDBStringTableBuilder" = type { %"class.llvm::codeview::DebugStringTableSubsection" }
%"class.llvm::codeview::DebugStringTableSubsection" = type <{ %"class.llvm::codeview::DebugSubsection.base", [4 x i8], %"class.llvm::DenseMap", %"class.llvm::StringMap", i32, [4 x i8] }>
%"class.llvm::DenseMap" = type <{ ptr, i32, i32, i32, [4 x i8] }>
%"class.llvm::WritableBinaryStreamRef" = type { %"class.llvm::BinaryStreamRefBase" }
%"class.llvm::BinaryStreamRefBase" = type { %"class.std::shared_ptr", ptr, i64, %"class.std::optional.20" }
%"class.std::shared_ptr" = type { %"class.std::__shared_ptr" }
%"class.std::__shared_ptr" = type { ptr, %"class.std::__shared_count" }
%"class.std::__shared_count" = type { ptr }
%"class.std::optional.20" = type { %"struct.std::_Optional_base.21" }
%"struct.std::_Optional_base.21" = type { %"struct.std::_Optional_payload.23" }
%"struct.std::_Optional_payload.23" = type { %"struct.std::_Optional_payload_base.base.25", [7 x i8] }
%"struct.std::_Optional_payload_base.base.25" = type <{ %"union.std::_Optional_payload_base<unsigned long>::_Storage", i8 }>
%"union.std::_Optional_payload_base<unsigned long>::_Storage" = type { i64 }
%"class.llvm::MutableBinaryByteStream" = type { %"class.llvm::WritableBinaryStream", %"class.llvm::MutableArrayRef", %"class.llvm::BinaryByteStream" }
%"class.llvm::WritableBinaryStream" = type { %"class.llvm::BinaryStream" }
%"class.llvm::BinaryStream" = type { ptr }
%"class.llvm::MutableArrayRef" = type { %"class.llvm::ArrayRef" }
%"class.llvm::ArrayRef" = type { ptr, i64 }
%"class.llvm::BinaryByteStream" = type { %"class.llvm::BinaryStream", i32, %"class.llvm::ArrayRef" }
%"class.std::vector.28" = type { %"struct.std::_Vector_base.29" }
%"struct.std::_Vector_base.29" = type { %"struct.std::_Vector_base<llvm::pdb::SectionContrib, std::allocator<llvm::pdb::SectionContrib>>::_Vector_impl" }
%"struct.std::_Vector_base<llvm::pdb::SectionContrib, std::allocator<llvm::pdb::SectionContrib>>::_Vector_impl" = type { %"struct.std::_Vector_base<llvm::pdb::SectionContrib, std::allocator<llvm::pdb::SectionContrib>>::_Vector_impl_data" }
%"struct.std::_Vector_base<llvm::pdb::SectionContrib, std::allocator<llvm::pdb::SectionContrib>>::_Vector_impl_data" = type { ptr, ptr, ptr }
%"class.std::vector.33" = type { %"struct.std::_Vector_base.34" }
%"struct.std::_Vector_base.34" = type { %"struct.std::_Vector_base<llvm::pdb::SecMapEntry, std::allocator<llvm::pdb::SecMapEntry>>::_Vector_impl" }
%"struct.std::_Vector_base<llvm::pdb::SecMapEntry, std::allocator<llvm::pdb::SecMapEntry>>::_Vector_impl" = type { %"struct.std::_Vector_base<llvm::pdb::SecMapEntry, std::allocator<llvm::pdb::SecMapEntry>>::_Vector_impl_data" }
%"struct.std::_Vector_base<llvm::pdb::SecMapEntry, std::allocator<llvm::pdb::SecMapEntry>>::_Vector_impl_data" = type { ptr, ptr, ptr }
%"struct.std::array" = type { [11 x %"class.std::optional.38"] }
%"class.std::optional.38" = type { %"struct.std::_Optional_base.39" }
%"struct.std::_Optional_base.39" = type { %"struct.std::_Optional_payload.41" }
%"struct.std::_Optional_payload.41" = type { %"struct.std::_Optional_payload.base.45", [7 x i8] }
%"struct.std::_Optional_payload.base.45" = type { %"struct.std::_Optional_payload_base.base.44" }
%"struct.std::_Optional_payload_base.base.44" = type { %"union.std::_Optional_payload_base<llvm::pdb::DbiStreamBuilder::DebugStream>::_Storage", i8 }
%"union.std::_Optional_payload_base<llvm::pdb::DbiStreamBuilder::DebugStream>::_Storage" = type { %"struct.llvm::pdb::DbiStreamBuilder::DebugStream" }
%"struct.llvm::pdb::DbiStreamBuilder::DebugStream" = type <{ %"class.std::function", i32, i16, [2 x i8] }>
%"class.std::function" = type { %"class.std::_Function_base", ptr }
%"class.std::_Function_base" = type { %"union.std::_Any_data", ptr }
%"union.std::_Any_data" = type { %"union.std::_Nocopy_types" }
%"union.std::_Nocopy_types" = type { { i64, i64 } }
%"class.__gnu_cxx::__normal_iterator.181" = type { ptr }

; Function Attrs: mustprogress nounwind uwtable
define linkonce_odr hidden noundef nonnull align 8 dereferenceable(8) ptr @_ZNK9__gnu_cxx17__normal_iteratorIPKN4llvm3pdb14SectionContribESt6vectorIS3_SaIS3_EEE4baseEv(ptr noundef nonnull align 8 dereferenceable(8) %0) #0 comdat align 2 {
  %2 = alloca ptr, align 8
  store ptr %0, ptr %2, align 8
  %3 = load ptr, ptr %2, align 8
  %4 = getelementptr inbounds nuw %"class.__gnu_cxx::__normal_iterator.181", ptr %3, i32 0, i32 0
  ret ptr %4
}

; Function Attrs: mustprogress nounwind uwtable
define linkonce_odr hidden void @_ZN9__gnu_cxx17__normal_iteratorIPKN4llvm3pdb14SectionContribESt6vectorIS3_SaIS3_EEEC2ERKS5_(ptr noundef nonnull align 8 dereferenceable(8) %0, ptr noundef nonnull align 8 dereferenceable(8) %1) unnamed_addr #0 comdat align 2 {
  %3 = alloca ptr, align 8
  %4 = alloca ptr, align 8
  store ptr %0, ptr %3, align 8
  store ptr %1, ptr %4, align 8
  %5 = load ptr, ptr %3, align 8
  %6 = getelementptr inbounds nuw %"class.__gnu_cxx::__normal_iterator.181", ptr %5, i32 0, i32 0
  %7 = load ptr, ptr %4, align 8
  %8 = load ptr, ptr %7, align 8
  store ptr %8, ptr %6, align 8
  ret void
}

; Function Attrs: mustprogress nounwind uwtable
define linkonce_odr noundef zeroext i1 @_ZN9__gnu_cxxeqIPKN4llvm3pdb14SectionContribESt6vectorIS3_SaIS3_EEEEbRKNS_17__normal_iteratorIT_T0_EESE_(ptr noundef nonnull align 8 dereferenceable(8) %0, ptr noundef nonnull align 8 dereferenceable(8) %1) #0 comdat {
  %3 = alloca ptr, align 8
  %4 = alloca ptr, align 8
  store ptr %0, ptr %3, align 8
  store ptr %1, ptr %4, align 8
  %5 = load ptr, ptr %3, align 8
  %6 = call noundef nonnull align 8 dereferenceable(8) ptr @_ZNK9__gnu_cxx17__normal_iteratorIPKN4llvm3pdb14SectionContribESt6vectorIS3_SaIS3_EEE4baseEv(ptr noundef nonnull align 8 dereferenceable(8) %5) #12
  %7 = load ptr, ptr %6, align 8
  %8 = load ptr, ptr %4, align 8
  %9 = call noundef nonnull align 8 dereferenceable(8) ptr @_ZNK9__gnu_cxx17__normal_iteratorIPKN4llvm3pdb14SectionContribESt6vectorIS3_SaIS3_EEE4baseEv(ptr noundef nonnull align 8 dereferenceable(8) %8) #12
  %10 = load ptr, ptr %9, align 8
  %11 = icmp eq ptr %7, %10
  ret i1 %11
}

; Function Attrs: mustprogress nounwind uwtable
define linkonce_odr hidden ptr @_ZNKSt6vectorIN4llvm3pdb14SectionContribESaIS2_EE3endEv(ptr noundef nonnull align 8 dereferenceable(24) %0) #0 comdat align 2 {
  %2 = alloca %"class.__gnu_cxx::__normal_iterator.181", align 8
  %3 = alloca ptr, align 8
  store ptr %0, ptr %3, align 8
  %4 = load ptr, ptr %3, align 8
  %5 = getelementptr inbounds nuw %"struct.std::_Vector_base.29", ptr %4, i32 0, i32 0
  %6 = getelementptr inbounds nuw %"struct.std::_Vector_base<llvm::pdb::SectionContrib, std::allocator<llvm::pdb::SectionContrib>>::_Vector_impl_data", ptr %5, i32 0, i32 1
  call void @_ZN9__gnu_cxx17__normal_iteratorIPKN4llvm3pdb14SectionContribESt6vectorIS3_SaIS3_EEEC2ERKS5_(ptr noundef nonnull align 8 dereferenceable(8) %2, ptr noundef nonnull align 8 dereferenceable(8) %6) #12
  %7 = getelementptr inbounds nuw %"class.__gnu_cxx::__normal_iterator.181", ptr %2, i32 0, i32 0
  %8 = load ptr, ptr %7, align 8
  ret ptr %8
}

; Function Attrs: mustprogress nounwind uwtable
define linkonce_odr hidden ptr @_ZNKSt6vectorIN4llvm3pdb14SectionContribESaIS2_EE5beginEv(ptr noundef nonnull align 8 dereferenceable(24) %0) #0 comdat align 2 {
  %2 = alloca %"class.__gnu_cxx::__normal_iterator.181", align 8
  %3 = alloca ptr, align 8
  store ptr %0, ptr %3, align 8
  %4 = load ptr, ptr %3, align 8
  %5 = getelementptr inbounds nuw %"struct.std::_Vector_base.29", ptr %4, i32 0, i32 0
  %6 = getelementptr inbounds nuw %"struct.std::_Vector_base<llvm::pdb::SectionContrib, std::allocator<llvm::pdb::SectionContrib>>::_Vector_impl_data", ptr %5, i32 0, i32 0
  call void @_ZN9__gnu_cxx17__normal_iteratorIPKN4llvm3pdb14SectionContribESt6vectorIS3_SaIS3_EEEC2ERKS5_(ptr noundef nonnull align 8 dereferenceable(8) %2, ptr noundef nonnull align 8 dereferenceable(8) %6) #12
  %7 = getelementptr inbounds nuw %"class.__gnu_cxx::__normal_iterator.181", ptr %2, i32 0, i32 0
  %8 = load ptr, ptr %7, align 8
  ret ptr %8
}

; Function Attrs: mustprogress nounwind uwtable
define linkonce_odr hidden noundef i64 @_ZNKSt6vectorIN4llvm3pdb14SectionContribESaIS2_EE4sizeEv(ptr noundef nonnull align 8 dereferenceable(24) %0) #0 comdat align 2 {
  %2 = alloca ptr, align 8
  store ptr %0, ptr %2, align 8
  %3 = load ptr, ptr %2, align 8
  %4 = getelementptr inbounds nuw %"struct.std::_Vector_base.29", ptr %3, i32 0, i32 0
  %5 = getelementptr inbounds nuw %"struct.std::_Vector_base<llvm::pdb::SectionContrib, std::allocator<llvm::pdb::SectionContrib>>::_Vector_impl_data", ptr %4, i32 0, i32 1
  %6 = load ptr, ptr %5, align 8
  %7 = getelementptr inbounds nuw %"struct.std::_Vector_base.29", ptr %3, i32 0, i32 0
  %8 = getelementptr inbounds nuw %"struct.std::_Vector_base<llvm::pdb::SectionContrib, std::allocator<llvm::pdb::SectionContrib>>::_Vector_impl_data", ptr %7, i32 0, i32 0
  %9 = load ptr, ptr %8, align 8
  %10 = ptrtoint ptr %6 to i64
  %11 = ptrtoint ptr %9 to i64
  %12 = sub i64 %10, %11
  %13 = sdiv exact i64 %12, 28
  ret i64 %13
}

; Function Attrs: mustprogress nounwind uwtable
define linkonce_odr hidden noundef zeroext i1 @_ZNKSt6vectorIN4llvm3pdb14SectionContribESaIS2_EE5emptyEv(ptr noundef nonnull align 8 dereferenceable(24) %0) #0 comdat align 2 {
  %2 = alloca ptr, align 8
  %3 = alloca %"class.__gnu_cxx::__normal_iterator.181", align 8
  %4 = alloca %"class.__gnu_cxx::__normal_iterator.181", align 8
  store ptr %0, ptr %2, align 8
  %5 = load ptr, ptr %2, align 8
  %6 = call ptr @_ZNKSt6vectorIN4llvm3pdb14SectionContribESaIS2_EE5beginEv(ptr noundef nonnull align 8 dereferenceable(24) %5) #12
  %7 = getelementptr inbounds nuw %"class.__gnu_cxx::__normal_iterator.181", ptr %3, i32 0, i32 0
  store ptr %6, ptr %7, align 8
  %8 = call ptr @_ZNKSt6vectorIN4llvm3pdb14SectionContribESaIS2_EE3endEv(ptr noundef nonnull align 8 dereferenceable(24) %5) #12
  %9 = getelementptr inbounds nuw %"class.__gnu_cxx::__normal_iterator.181", ptr %4, i32 0, i32 0
  store ptr %8, ptr %9, align 8
  %10 = call noundef zeroext i1 @_ZN9__gnu_cxxeqIPKN4llvm3pdb14SectionContribESt6vectorIS3_SaIS3_EEEEbRKNS_17__normal_iteratorIT_T0_EESE_(ptr noundef nonnull align 8 dereferenceable(8) %3, ptr noundef nonnull align 8 dereferenceable(8) %4) #12
  ret i1 %10
}

; Function Attrs: mustprogress nounwind uwtable
define dso_local noundef i32 @_ZNK4llvm3pdb16DbiStreamBuilder34calculateSectionContribsStreamSizeEv(ptr noundef nonnull align 8 dereferenceable(936) %0) #0 align 2 {
  %2 = alloca i32, align 4
  %3 = alloca ptr, align 8
  store ptr %0, ptr %3, align 8
  %4 = load ptr, ptr %3, align 8
  %5 = getelementptr inbounds nuw %"class.llvm::pdb::DbiStreamBuilder", ptr %4, i32 0, i32 20
  %6 = call noundef zeroext i1 @_ZNKSt6vectorIN4llvm3pdb14SectionContribESaIS2_EE5emptyEv(ptr noundef nonnull align 8 dereferenceable(24) %5) #12
  br i1 %6, label %7, label %8

7:                                                ; preds = %1
  store i32 0, ptr %2, align 4
  br label %14

8:                                                ; preds = %1
  %9 = getelementptr inbounds nuw %"class.llvm::pdb::DbiStreamBuilder", ptr %4, i32 0, i32 20
  %10 = call noundef i64 @_ZNKSt6vectorIN4llvm3pdb14SectionContribESaIS2_EE4sizeEv(ptr noundef nonnull align 8 dereferenceable(24) %9) #12
  %11 = mul i64 28, %10
  %12 = add i64 4, %11
  %13 = trunc i64 %12 to i32
  store i32 %13, ptr %2, align 4
  br label %14

14:                                               ; preds = %8, %7
  %15 = load i32, ptr %2, align 4
  ret i32 %15
}