; Function Attrs: mustprogress nofree norecurse nosync nounwind willreturn memory(argmem: read) uwtable
define dso_local noundef i32 @_ZNK4llvm3pdb16DbiStreamBuilder34calculateSectionContribsStreamSizeEv(ptr nocapture noundef nonnull readonly align 8 dereferenceable(936) %0) local_unnamed_addr #5 align 2 {
  %2 = getelementptr inbounds nuw i8, ptr %0, i64 360
  %3 = load ptr, ptr %2, align 8
  %4 = getelementptr inbounds i8, ptr %0, i64 368
  %5 = load ptr, ptr %4, align 8
  %6 = icmp eq ptr %3, %5
  br i1 %6, label %15, label %7

7:                                                ; preds = %1
  %8 = ptrtoint ptr %5 to i64
  %9 = ptrtoint ptr %3 to i64
  %10 = sub i64 %8, %9
  %11 = sdiv exact i64 %10, 28
  %12 = trunc i64 %11 to i32
  %13 = mul i32 %12, 28
  %14 = add i32 %13, 4
  br label %15

15:                                               ; preds = %1, %7
  %.0 = phi i32 [ %14, %7 ], [ 0, %1 ]
  ret i32 %.0
}